target datalayout = "e-m:e-p270:32:32-p271:32:32-p272:64:64-i64:64-i128:128-f80:128-n8:16:32:64-S128"
target triple = "x86_64-pc-linux-gnu"

%union.Value = type { ptr }
%struct.Table = type { ptr, i8, i8, i8, i8, i32, ptr, ptr, ptr, ptr }
%struct.TValue = type { %union.Value, i8 }

; Function Attrs: nounwind uwtable
define internal i32 @retpsetcode(ptr noundef %0, ptr noundef %1) #0 {
  %3 = alloca i32, align 4
  %4 = alloca ptr, align 8
  %5 = alloca ptr, align 8
  store ptr %0, ptr %4, align 8, !tbaa !9
  store ptr %1, ptr %5, align 8, !tbaa !22
  %6 = load ptr, ptr %5, align 8, !tbaa !22
  %7 = getelementptr inbounds nuw %struct.TValue, ptr %6, i32 0, i32 1
  %8 = load i8, ptr %7, align 8, !tbaa !24
  %9 = zext i8 %8 to i32
  %10 = icmp eq i32 %9, 32
  br i1 %10, label %11, label %12

11:                                               ; preds = %2
  store i32 1, ptr %3, align 4
  br label %23

12:                                               ; preds = %2
  %13 = load ptr, ptr %5, align 8, !tbaa !22
  %14 = load ptr, ptr %4, align 8, !tbaa !9
  %15 = getelementptr inbounds nuw %struct.Table, ptr %14, i32 0, i32 7
  %16 = load ptr, ptr %15, align 8, !tbaa !28
  %17 = ptrtoint ptr %13 to i64
  %18 = ptrtoint ptr %16 to i64
  %19 = sub i64 %17, %18
  %20 = sdiv exact i64 %19, 24
  %21 = trunc i64 %20 to i32
  %22 = add nsw i32 %21, 3
  store i32 %22, ptr %3, align 4
  br label %23

23:                                               ; preds = %12, %11
  %24 = load i32, ptr %3, align 4
  ret i32 %24
}

; Function Attrs: nounwind uwtable
define internal i32 @finishnodeset(ptr noundef %0, ptr noundef %1, ptr noundef %2) #0 {
  %4 = alloca i32, align 4
  %5 = alloca ptr, align 8
  %6 = alloca ptr, align 8
  %7 = alloca ptr, align 8
  %8 = alloca ptr, align 8
  %9 = alloca ptr, align 8
  store ptr %0, ptr %5, align 8, !tbaa !9
  store ptr %1, ptr %6, align 8, !tbaa !22
  store ptr %2, ptr %7, align 8, !tbaa !22
  %10 = load ptr, ptr %6, align 8, !tbaa !22
  %11 = getelementptr inbounds nuw %struct.TValue, ptr %10, i32 0, i32 1
  %12 = load i8, ptr %11, align 8, !tbaa !24
  %13 = zext i8 %12 to i32
  %14 = and i32 %13, 15
  %15 = icmp eq i32 %14, 0
  br i1 %15, label %28, label %16

16:                                               ; preds = %3
  call void @llvm.lifetime.start.p0(i64 8, ptr %8) #8
  %17 = load ptr, ptr %6, align 8, !tbaa !22
  store ptr %17, ptr %8, align 8, !tbaa !22
  call void @llvm.lifetime.start.p0(i64 8, ptr %9) #8
  %18 = load ptr, ptr %7, align 8, !tbaa !22
  store ptr %18, ptr %9, align 8, !tbaa !22
  %19 = load ptr, ptr %8, align 8, !tbaa !22
  %20 = getelementptr inbounds nuw %struct.TValue, ptr %19, i32 0, i32 0
  %21 = load ptr, ptr %9, align 8, !tbaa !22
  %22 = getelementptr inbounds nuw %struct.TValue, ptr %21, i32 0, i32 0
  call void @llvm.memcpy.p0.p0.i64(ptr align 8 %20, ptr align 8 %22, i64 8, i1 false), !tbaa.struct !26
  %23 = load ptr, ptr %9, align 8, !tbaa !22
  %24 = getelementptr inbounds nuw %struct.TValue, ptr %23, i32 0, i32 1
  %25 = load i8, ptr %24, align 8, !tbaa !24
  %26 = load ptr, ptr %8, align 8, !tbaa !22
  %27 = getelementptr inbounds nuw %struct.TValue, ptr %26, i32 0, i32 1
  store i8 %25, ptr %27, align 8, !tbaa !24
  call void @llvm.lifetime.end.p0(i64 8, ptr %9) #8
  call void @llvm.lifetime.end.p0(i64 8, ptr %8) #8
  store i32 0, ptr %4, align 4
  br label %32

28:                                               ; preds = %3
  %29 = load ptr, ptr %5, align 8, !tbaa !9
  %30 = load ptr, ptr %6, align 8, !tbaa !22
  %31 = call i32 @retpsetcode(ptr noundef %29, ptr noundef %30)
  store i32 %31, ptr %4, align 4
  br label %32

32:                                               ; preds = %28, %16
  %33 = load i32, ptr %4, align 4
  ret i32 %33
}

; Function Attrs: nounwind uwtable
define hidden i32 @luaH_pset(ptr noundef %0, ptr noundef %1, ptr noundef %2) #0 {
  %4 = alloca i32, align 4
  %5 = alloca ptr, align 8
  %6 = alloca ptr, align 8
  %7 = alloca ptr, align 8
  %8 = alloca i64, align 8
  %9 = alloca i32, align 4
  store ptr %0, ptr %5, align 8, !tbaa !9
  store ptr %1, ptr %6, align 8, !tbaa !22
  store ptr %2, ptr %7, align 8, !tbaa !22
  %10 = load ptr, ptr %6, align 8, !tbaa !22
  %11 = getelementptr inbounds nuw %struct.TValue, ptr %10, i32 0, i32 1
  %12 = load i8, ptr %11, align 8, !tbaa !24
  %13 = zext i8 %12 to i32
  %14 = and i32 %13, 63
  switch i32 %14, label %45 [
    i32 4, label %15
    i32 3, label %22
    i32 0, label %29
    i32 19, label %30
  ]

15:                                               ; preds = %3
  %16 = load ptr, ptr %5, align 8, !tbaa !9
  %17 = load ptr, ptr %6, align 8, !tbaa !22
  %18 = getelementptr inbounds nuw %struct.TValue, ptr %17, i32 0, i32 0
  %19 = load ptr, ptr %18, align 8, !tbaa !21
  %20 = load ptr, ptr %7, align 8, !tbaa !22
  %21 = call i32 @luaH_psetshortstr(ptr noundef %16, ptr noundef %19, ptr noundef %20)
  store i32 %21, ptr %4, align 4
  br label %52

22:                                               ; preds = %3
  %23 = load ptr, ptr %5, align 8, !tbaa !9
  %24 = load ptr, ptr %6, align 8, !tbaa !22
  %25 = getelementptr inbounds nuw %struct.TValue, ptr %24, i32 0, i32 0
  %26 = load i64, ptr %25, align 8, !tbaa !21
  %27 = load ptr, ptr %7, align 8, !tbaa !22
  %28 = call i32 @psetint(ptr noundef %23, i64 noundef %26, ptr noundef %27)
  store i32 %28, ptr %4, align 4
  br label %52

29:                                               ; preds = %3
  store i32 1, ptr %4, align 4
  br label %52

30:                                               ; preds = %3
  call void @llvm.lifetime.start.p0(i64 8, ptr %8) #8
  %31 = load ptr, ptr %6, align 8, !tbaa !22
  %32 = getelementptr inbounds nuw %struct.TValue, ptr %31, i32 0, i32 0
  %33 = load double, ptr %32, align 8, !tbaa !21
  %34 = call i32 @luaV_flttointeger(double noundef %33, ptr noundef %8, i32 noundef 0)
  %35 = icmp ne i32 %34, 0
  br i1 %35, label %36, label %41

36:                                               ; preds = %30
  %37 = load ptr, ptr %5, align 8, !tbaa !9
  %38 = load i64, ptr %8, align 8, !tbaa !38
  %39 = load ptr, ptr %7, align 8, !tbaa !22
  %40 = call i32 @psetint(ptr noundef %37, i64 noundef %38, ptr noundef %39)
  store i32 %40, ptr %4, align 4
  store i32 1, ptr %9, align 4
  br label %42

41:                                               ; preds = %30
  store i32 0, ptr %9, align 4
  br label %42

42:                                               ; preds = %41, %36
  call void @llvm.lifetime.end.p0(i64 8, ptr %8) #8
  %43 = load i32, ptr %9, align 4
  switch i32 %43, label %54 [
    i32 0, label %44
    i32 1, label %52
  ]

44:                                               ; preds = %42
  br label %45

45:                                               ; preds = %3, %44
  %46 = load ptr, ptr %5, align 8, !tbaa !9
  %47 = load ptr, ptr %5, align 8, !tbaa !9
  %48 = load ptr, ptr %6, align 8, !tbaa !22
  %49 = call ptr @getgeneric(ptr noundef %47, ptr noundef %48, i32 noundef 0)
  %50 = load ptr, ptr %7, align 8, !tbaa !22
  %51 = call i32 @finishnodeset(ptr noundef %46, ptr noundef %49, ptr noundef %50)
  store i32 %51, ptr %4, align 4
  br label %52

52:                                               ; preds = %45, %42, %29, %22, %15
  %53 = load i32, ptr %4, align 4
  ret i32 %53

54:                                               ; preds = %42
  unreachable
}