; Function Attrs: nounwind uwtable
define hidden i32 @luaH_pset(ptr noundef captures(none) %0, ptr noundef readonly captures(none) %1, ptr noundef readonly captures(none) %2) local_unnamed_addr #0 {
  %4 = alloca i64, align 8
  %5 = getelementptr inbounds nuw i8, ptr %1, i64 8
  %6 = load i8, ptr %5, align 8, !tbaa !14
  %7 = and i8 %6, 63
  switch i8 %7, label %20 [
    i8 4, label %8
    i8 3, label %11
    i8 0, label %finishnodeset.exit
    i8 19, label %14
  ]

8:                                                ; preds = %3
  %9 = load ptr, ptr %1, align 8, !tbaa !16
  %10 = tail call i32 @luaH_psetshortstr(ptr noundef %0, ptr noundef %9, ptr noundef %2)
  br label %finishnodeset.exit

11:                                               ; preds = %3
  %12 = load i64, ptr %1, align 8, !tbaa !16
  %13 = tail call fastcc i32 @psetint(ptr noundef %0, i64 noundef %12, ptr noundef %2)
  br label %finishnodeset.exit

14:                                               ; preds = %3
  call void @llvm.lifetime.start.p0(i64 8, ptr nonnull %4) #13
  %15 = load double, ptr %1, align 8, !tbaa !16
  %16 = call i32 @luaV_flttointeger(double noundef %15, ptr noundef nonnull %4, i32 noundef 0) #13
  %.not.not = icmp eq i32 %16, 0
  br i1 %.not.not, label %.thread, label %17

.thread:                                          ; preds = %14
  call void @llvm.lifetime.end.p0(i64 8, ptr nonnull %4) #13
  br label %20

17:                                               ; preds = %14
  %18 = load i64, ptr %4, align 8, !tbaa !30
  %19 = call fastcc i32 @psetint(ptr noundef %0, i64 noundef %18, ptr noundef %2)
  call void @llvm.lifetime.end.p0(i64 8, ptr nonnull %4) #13
  br label %finishnodeset.exit

20:                                               ; preds = %.thread, %3
  %21 = call fastcc ptr @getgeneric(ptr noundef %0, ptr noundef nonnull %1, i32 noundef 0)
  %22 = getelementptr inbounds nuw i8, ptr %21, i64 8
  %23 = load i8, ptr %22, align 8, !tbaa !14
  %24 = and i8 %23, 15
  %25 = icmp eq i8 %24, 0
  br i1 %25, label %30, label %26

26:                                               ; preds = %20
  %27 = load i64, ptr %2, align 8, !tbaa !16
  store i64 %27, ptr %21, align 8, !tbaa !16
  %28 = getelementptr inbounds nuw i8, ptr %2, i64 8
  %29 = load i8, ptr %28, align 8, !tbaa !14
  store i8 %29, ptr %22, align 8, !tbaa !14
  br label %finishnodeset.exit

30:                                               ; preds = %20
  %31 = icmp eq i8 %23, 32
  br i1 %31, label %finishnodeset.exit, label %32

32:                                               ; preds = %30
  %33 = getelementptr inbounds nuw i8, ptr %0, i64 24
  %34 = load ptr, ptr %33, align 8, !tbaa !18
  %35 = ptrtoint ptr %21 to i64
  %36 = ptrtoint ptr %34 to i64
  %37 = sub i64 %35, %36
  %38 = sdiv exact i64 %37, 24
  %39 = trunc i64 %38 to i32
  %40 = add nsw i32 %39, 3
  br label %finishnodeset.exit

finishnodeset.exit:                               ; preds = %32, %30, %26, %17, %3, %11, %8
  %.015 = phi i32 [ %19, %17 ], [ %13, %11 ], [ %10, %8 ], [ 1, %3 ], [ 0, %26 ], [ %40, %32 ], [ 1, %30 ]
  ret i32 %.015
}